target datalayout = "e-m:e-p270:32:32-p271:32:32-p272:64:64-i64:64-i128:128-f80:128-n8:16:32:64-S128"
target triple = "x86_64-pc-linux-gnu"

%struct.SDL_TrayEntry = type { ptr, ptr, i8, i32, ptr, ptr, ptr }

@gtk_check_menu_item_set_active = internal global ptr null, align 8

; Function Attrs: nounwind uwtable
define hidden void @SDL_SetTrayEntryChecked_REAL(ptr noundef %0, i1 noundef zeroext %1) #0 {
  %3 = alloca ptr, align 8
  %4 = alloca i8, align 1
  store ptr %0, ptr %3, align 8
  %5 = zext i1 %1 to i8
  store i8 %5, ptr %4, align 1
  %6 = load ptr, ptr %3, align 8
  %7 = icmp ne ptr %6, null
  br i1 %7, label %8, label %14

8:                                                ; preds = %2
  %9 = load ptr, ptr %3, align 8
  %10 = getelementptr inbounds nuw %struct.SDL_TrayEntry, ptr %9, i32 0, i32 3
  %11 = load i32, ptr %10, align 4
  %12 = and i32 %11, 2
  %13 = icmp ne i32 %12, 0
  br i1 %13, label %15, label %14

14:                                               ; preds = %8, %2
  br label %27

15:                                               ; preds = %8
  %16 = load ptr, ptr %3, align 8
  %17 = getelementptr inbounds nuw %struct.SDL_TrayEntry, ptr %16, i32 0, i32 2
  store i8 1, ptr %17, align 8
  %18 = load ptr, ptr @gtk_check_menu_item_set_active, align 8
  %19 = load ptr, ptr %3, align 8
  %20 = getelementptr inbounds nuw %struct.SDL_TrayEntry, ptr %19, i32 0, i32 1
  %21 = load ptr, ptr %20, align 8
  %22 = load i8, ptr %4, align 1, !range !3, !noundef !4
  %23 = trunc i8 %22 to i1
  %24 = zext i1 %23 to i32
  call void %18(ptr noundef %21, i32 noundef %24)
  %25 = load ptr, ptr %3, align 8
  %26 = getelementptr inbounds nuw %struct.SDL_TrayEntry, ptr %25, i32 0, i32 2
  store i8 0, ptr %26, align 8
  br label %27

27:                                               ; preds = %15, %14
  ret void
}