; Function Attrs: nounwind uwtable
define hidden void @SDL_SetTrayEntryChecked_REAL(ptr noundef captures(address_is_null) %0, i1 noundef zeroext %1) local_unnamed_addr #0 {
  %.not = icmp eq ptr %0, null
  br i1 %.not, label %13, label %3

3:                                                ; preds = %2
  %4 = getelementptr inbounds nuw i8, ptr %0, i64 20
  %5 = load i32, ptr %4, align 4
  %6 = and i32 %5, 2
  %.not5 = icmp eq i32 %6, 0
  br i1 %.not5, label %13, label %7

7:                                                ; preds = %3
  %8 = getelementptr inbounds nuw i8, ptr %0, i64 16
  store i8 1, ptr %8, align 8
  %9 = load ptr, ptr @gtk_check_menu_item_set_active, align 8
  %10 = getelementptr inbounds nuw i8, ptr %0, i64 8
  %11 = load ptr, ptr %10, align 8
  %12 = zext i1 %1 to i32
  tail call void %9(ptr noundef %11, i32 noundef %12) #10
  store i8 0, ptr %8, align 8
  br label %13

13:                                               ; preds = %2, %3, %7
  ret void
}